target datalayout = "e-m:e-p270:32:32-p271:32:32-p272:64:64-i64:64-i128:128-f80:128-n8:16:32:64-S128"
target triple = "x86_64-unknown-linux-gnu"

%class.symbol = type { ptr }
%"class.euf::th_solver" = type { %"class.sat::extension", %"class.euf::th_model_builder", %"class.euf::th_decompile", %"class.euf::th_internalizer", ptr }
%"class.sat::extension" = type { ptr, i8, i32, %class.symbol, ptr }
%"class.euf::th_model_builder" = type { ptr }
%"class.euf::th_decompile" = type { ptr }
%"class.euf::th_internalizer" = type { ptr, %class.ptr_vector, %class.svector }
%class.svector = type { %class.vector.0 }
%class.vector.0 = type { ptr }
%class.svector.1 = type { %class.vector.2 }
%class.vector.2 = type { ptr }
%class.ptr_vector = type { %class.vector }
%class.vector = type { ptr }
%"class.euf::th_euf_solver" = type <{ %"class.euf::th_solver", ptr, %class.ptr_vector, %class.svector.1, i32, [4 x i8] }>
%"struct.std::pair.253" = type <{ ptr, i32, [4 x i8] }>

@.str.23 = private unnamed_addr constant [12 x i8] c"bv-solver:\0A\00", align 1

; Function Attrs: mustprogress nounwind uwtable
define linkonce_odr hidden void @_ZNSt4pairIPKN2bv6solverEiEC2IS3_RiTnNSt9enable_ifIXaaclsr5_PCCPE22_MoveConstructiblePairIT_T0_EEclsr5_PCCPE30_ImplicitlyMoveConvertiblePairIS8_S9_EEEbE4typeELb1EEEOS8_OS9_(ptr noundef nonnull align 8 dereferenceable(12) %this, ptr noundef nonnull align 8 dereferenceable(8) %__x, ptr noundef nonnull align 4 dereferenceable(4) %__y) unnamed_addr #4 comdat align 2 {
entry:
  %this.addr = alloca ptr, align 8
  %__x.addr = alloca ptr, align 8
  %__y.addr = alloca ptr, align 8
  store ptr %this, ptr %this.addr, align 8
  store ptr %__x, ptr %__x.addr, align 8
  store ptr %__y, ptr %__y.addr, align 8
  %this1 = load ptr, ptr %this.addr, align 8
  %first = getelementptr inbounds %"struct.std::pair.253", ptr %this1, i32 0, i32 0
  %0 = load ptr, ptr %__x.addr, align 8
  %1 = load ptr, ptr %0, align 8
  store ptr %1, ptr %first, align 8
  %second = getelementptr inbounds %"struct.std::pair.253", ptr %this1, i32 0, i32 1
  %2 = load ptr, ptr %__y.addr, align 8
  %3 = load i32, ptr %2, align 4
  store i32 %3, ptr %second, align 8
  ret void
}

; Function Attrs: mustprogress nounwind uwtable
define linkonce_odr hidden noundef i32 @_ZNK6vectorIPN3euf5enodeELb0EjE4sizeEv(ptr noundef nonnull align 8 dereferenceable(8) %this) #4 comdat align 2 {
entry:
  %retval = alloca i32, align 4
  %this.addr = alloca ptr, align 8
  store ptr %this, ptr %this.addr, align 8
  %this1 = load ptr, ptr %this.addr, align 8
  %m_data = getelementptr inbounds %class.vector, ptr %this1, i32 0, i32 0
  %0 = load ptr, ptr %m_data, align 8
  %cmp = icmp eq ptr %0, null
  br i1 %cmp, label %if.then, label %if.end

if.then:                                          ; preds = %entry
  store i32 0, ptr %retval, align 4
  br label %return

if.end:                                           ; preds = %entry
  %m_data2 = getelementptr inbounds %class.vector, ptr %this1, i32 0, i32 0
  %1 = load ptr, ptr %m_data2, align 8
  %arrayidx = getelementptr inbounds i32, ptr %1, i64 -1
  %2 = load i32, ptr %arrayidx, align 4
  store i32 %2, ptr %retval, align 4
  br label %return

return:                                           ; preds = %if.end, %if.then
  %3 = load i32, ptr %retval, align 4
  ret i32 %3
}

; Function Attrs: mustprogress uwtable
define linkonce_odr hidden noundef nonnull align 8 dereferenceable(8) ptr @_ZN2bvlsERSoRKSt4pairIPKNS_6solverEiE(ptr noundef nonnull align 8 dereferenceable(8) %out, ptr noundef nonnull align 8 dereferenceable(12) %p) #5 comdat {
entry:
  %out.addr = alloca ptr, align 8
  %p.addr = alloca ptr, align 8
  store ptr %out, ptr %out.addr, align 8
  store ptr %p, ptr %p.addr, align 8
  %0 = load ptr, ptr %p.addr, align 8
  %first = getelementptr inbounds %"struct.std::pair.253", ptr %0, i32 0, i32 0
  %1 = load ptr, ptr %first, align 8
  %2 = load ptr, ptr %out.addr, align 8
  %3 = load ptr, ptr %p.addr, align 8
  %second = getelementptr inbounds %"struct.std::pair.253", ptr %3, i32 0, i32 1
  %4 = load i32, ptr %second, align 8
  %call = call noundef nonnull align 8 dereferenceable(8) ptr @_ZNK2bv6solver7displayERSoi(ptr noundef nonnull align 8 dereferenceable(640) %1, ptr noundef nonnull align 8 dereferenceable(8) %2, i32 noundef %4)
  ret ptr %call
}

; Function Attrs: mustprogress uwtable
define linkonce_odr hidden { ptr, i32 } @_ZNK2bv6solver2ppEi(ptr noundef nonnull align 8 dereferenceable(640) %this, i32 noundef %v) #5 comdat align 2 {
entry:
  %retval = alloca %"struct.std::pair.253", align 8
  %this.addr = alloca ptr, align 8
  %v.addr = alloca i32, align 4
  %ref.tmp = alloca ptr, align 8
  store ptr %this, ptr %this.addr, align 8
  store i32 %v, ptr %v.addr, align 4
  %this1 = load ptr, ptr %this.addr, align 8
  store ptr %this1, ptr %ref.tmp, align 8
  call void @_ZNSt4pairIPKN2bv6solverEiEC2IS3_RiTnNSt9enable_ifIXaaclsr5_PCCPE22_MoveConstructiblePairIT_T0_EEclsr5_PCCPE30_ImplicitlyMoveConvertiblePairIS8_S9_EEEbE4typeELb1EEEOS8_OS9_(ptr noundef nonnull align 8 dereferenceable(12) %retval, ptr noundef nonnull align 8 dereferenceable(8) %ref.tmp, ptr noundef nonnull align 4 dereferenceable(4) %v.addr)
  %0 = load { ptr, i32 }, ptr %retval, align 8
  ret { ptr, i32 } %0
}

; Function Attrs: mustprogress uwtable
define linkonce_odr hidden noundef i32 @_ZNK3euf13th_euf_solver12get_num_varsEv(ptr noundef nonnull align 8 dereferenceable(108) %this) #5 comdat align 2 {
entry:
  %this.addr = alloca ptr, align 8
  store ptr %this, ptr %this.addr, align 8
  %this1 = load ptr, ptr %this.addr, align 8
  %m_var2enode = getelementptr inbounds %"class.euf::th_euf_solver", ptr %this1, i32 0, i32 2
  %call = call noundef i32 @_ZNK6vectorIPN3euf5enodeELb0EjE4sizeEv(ptr noundef nonnull align 8 dereferenceable(8) %m_var2enode)
  ret i32 %call
}

; Function Attrs: mustprogress uwtable
define hidden noundef nonnull align 8 dereferenceable(8) ptr @_ZNK2bv6solver7displayERSo(ptr noundef nonnull align 8 dereferenceable(640) %this, ptr noundef nonnull align 8 dereferenceable(8) %out) unnamed_addr #5 align 2 {
entry:
  %this.addr = alloca ptr, align 8
  %out.addr = alloca ptr, align 8
  %num_vars = alloca i32, align 4
  %v = alloca i32, align 4
  %ref.tmp = alloca %"struct.std::pair.253", align 8
  store ptr %this, ptr %this.addr, align 8
  store ptr %out, ptr %out.addr, align 8
  %this1 = load ptr, ptr %this.addr, align 8
  %call = call noundef i32 @_ZNK3euf13th_euf_solver12get_num_varsEv(ptr noundef nonnull align 8 dereferenceable(108) %this1)
  store i32 %call, ptr %num_vars, align 4
  %0 = load i32, ptr %num_vars, align 4
  %cmp = icmp ugt i32 %0, 0
  br i1 %cmp, label %if.then, label %if.end

if.then:                                          ; preds = %entry
  %1 = load ptr, ptr %out.addr, align 8
  %call2 = call noundef nonnull align 8 dereferenceable(8) ptr @_ZStlsISt11char_traitsIcEERSt13basic_ostreamIcT_ES5_PKc(ptr noundef nonnull align 8 dereferenceable(8) %1, ptr noundef @.str.23)
  br label %if.end

if.end:                                           ; preds = %if.then, %entry
  store i32 0, ptr %v, align 4
  br label %for.cond

for.cond:                                         ; preds = %for.inc, %if.end
  %2 = load i32, ptr %v, align 4
  %3 = load i32, ptr %num_vars, align 4
  %cmp3 = icmp ult i32 %2, %3
  br i1 %cmp3, label %for.body, label %for.end

for.body:                                         ; preds = %for.cond
  %4 = load ptr, ptr %out.addr, align 8
  %5 = load i32, ptr %v, align 4
  %call4 = call { ptr, i32 } @_ZNK2bv6solver2ppEi(ptr noundef nonnull align 8 dereferenceable(640) %this1, i32 noundef %5)
  %6 = getelementptr inbounds { ptr, i32 }, ptr %ref.tmp, i32 0, i32 0
  %7 = extractvalue { ptr, i32 } %call4, 0
  store ptr %7, ptr %6, align 8
  %8 = getelementptr inbounds { ptr, i32 }, ptr %ref.tmp, i32 0, i32 1
  %9 = extractvalue { ptr, i32 } %call4, 1
  store i32 %9, ptr %8, align 8
  %call5 = call noundef nonnull align 8 dereferenceable(8) ptr @_ZN2bvlsERSoRKSt4pairIPKNS_6solverEiE(ptr noundef nonnull align 8 dereferenceable(8) %4, ptr noundef nonnull align 8 dereferenceable(12) %ref.tmp)
  br label %for.inc

for.inc:                                          ; preds = %for.body
  %10 = load i32, ptr %v, align 4
  %inc = add i32 %10, 1
  store i32 %inc, ptr %v, align 4
  br label %for.cond, !llvm.loop !19

for.end:                                          ; preds = %for.cond
  %11 = load ptr, ptr %out.addr, align 8
  ret ptr %11
}