; Function Attrs: mustprogress uwtable
define hidden noundef nonnull align 8 dereferenceable(8) ptr @_ZNK2bv6solver7displayERSo(ptr noundef nonnull align 8 dereferenceable(640) %this, ptr noundef nonnull returned align 8 dereferenceable(8) %out) unnamed_addr #3 align 2 {
entry:
  %m_var2enode.i = getelementptr inbounds i8, ptr %this, i64 88
  %0 = load ptr, ptr %m_var2enode.i, align 8
  %cmp.i.i = icmp eq ptr %0, null
  br i1 %cmp.i.i, label %for.end, label %_ZNK3euf13th_euf_solver12get_num_varsEv.exit

_ZNK3euf13th_euf_solver12get_num_varsEv.exit:     ; preds = %entry
  %arrayidx.i.i = getelementptr inbounds i8, ptr %0, i64 -4
  %1 = load i32, ptr %arrayidx.i.i, align 4
  %cmp.not = icmp eq i32 %1, 0
  br i1 %cmp.not, label %for.end, label %for.body.preheader

for.body.preheader:                               ; preds = %_ZNK3euf13th_euf_solver12get_num_varsEv.exit
  %call2 = tail call noundef nonnull align 8 dereferenceable(8) ptr @_ZStlsISt11char_traitsIcEERSt13basic_ostreamIcT_ES5_PKc(ptr noundef nonnull align 8 dereferenceable(8) %out, ptr noundef nonnull @.str.23)
  br label %for.body

for.body:                                         ; preds = %for.body.preheader, %for.body
  %v.010 = phi i32 [ %inc, %for.body ], [ 0, %for.body.preheader ]
  %call.i = tail call noundef nonnull align 8 dereferenceable(8) ptr @_ZNK2bv6solver7displayERSoi(ptr noundef nonnull align 8 dereferenceable(640) %this, ptr noundef nonnull align 8 dereferenceable(8) %out, i32 noundef %v.010)
  %inc = add nuw i32 %v.010, 1
  %exitcond.not = icmp eq i32 %inc, %1
  br i1 %exitcond.not, label %for.end, label %for.body, !llvm.loop !51

for.end:                                          ; preds = %for.body, %entry, %_ZNK3euf13th_euf_solver12get_num_varsEv.exit
  ret ptr %out
}